target datalayout = "e-m:e-p270:32:32-p271:32:32-p272:64:64-i64:64-i128:128-f80:128-n8:16:32:64-S128"
target triple = "x86_64-pc-linux-gnu"

%struct._zend_phpdbg_globals = type { [11 x %struct._zend_array], %struct._zend_array, %struct._zend_array, ptr, ptr, %struct.phpdbg_frame_t, i32, ptr, %struct.phpdbg_lexer_data, ptr, %struct.sigaction, i32, i64, %struct.phpdbg_btree, %struct.phpdbg_btree, %struct._zend_array, %struct._zend_array, %struct._zend_array, %struct._zend_array, ptr, ptr, i8, ptr, ptr, ptr, i64, ptr, %struct._zval_struct, i32, i32, i8, i8, ptr, ptr, ptr, %struct._zend_array, ptr, ptr, ptr, [3 x %struct.anon.8], ptr, %struct.anon.9, i64, [2 x ptr], [3 x ptr], ptr, i8, ptr, ptr, [500 x i8], i32, %struct.phpdbg_signal_safe_mem, ptr, i64, ptr, i64 }
%struct.phpdbg_frame_t = type { i32, ptr, ptr }
%struct.phpdbg_lexer_data = type { i32, ptr, ptr, ptr, ptr, i32 }
%struct.sigaction = type { %union.anon.2, %struct.__sigset_t, i32, ptr }
%union.anon.2 = type { ptr }
%struct.__sigset_t = type { [16 x i64] }
%struct.phpdbg_btree = type { i64, i64, i8, ptr }
%struct._zval_struct = type { %union._zend_value, %union.anon.4, %union.anon.7 }
%union._zend_value = type { i64 }
%union.anon.4 = type { i32 }
%union.anon.7 = type { i32 }
%struct._zend_array = type { %struct._zend_refcounted_h, %union.anon.0, i32, %union.anon.1, i32, i32, i32, i32, i64, ptr }
%struct._zend_refcounted_h = type { i32, %union.anon }
%union.anon = type { i32 }
%union.anon.0 = type { i32 }
%union.anon.1 = type { ptr }
%struct.anon.8 = type { i32 }
%struct.anon.9 = type { i8, i32, i32, ptr, i32 }
%struct.phpdbg_signal_safe_mem = type { ptr, i8, ptr, ptr }
%struct._zend_executor_globals = type { %struct._zval_struct, %struct._zval_struct, [32 x ptr], ptr, ptr, %struct._zend_array, %struct._zend_array, ptr, i32, i32, ptr, ptr, ptr, ptr, ptr, ptr, i64, ptr, ptr, i32, i32, i64, i32, i32, i32, i8, i8, %struct.zend_atomic_bool_s, %struct.zend_atomic_bool_s, ptr, i64, ptr, ptr, %struct._zend_array, %struct._zend_array, i32, i8, %struct._zval_struct, %struct._zval_struct, %struct._zend_stack, %struct._zend_stack, %struct._zend_stack, ptr, i32, i32, i64, ptr, ptr, ptr, %struct._zend_objects_store, ptr, ptr, ptr, [3 x %struct._zend_op], ptr, i8, i8, i64, i32, i32, ptr, [16 x %struct._HashTableIterator], ptr, %union._zend_function, %struct._zend_op, %struct._zend_array, i64, %struct.zend_get_gc_buffer, ptr, ptr, ptr, i64, i8, i32, ptr, ptr, i64, %struct._zend_call_stack, i64, i64, [6 x ptr] }
%struct.zend_atomic_bool_s = type { i8 }
%struct._zend_stack = type { i32, i32, i32, ptr }
%struct._zend_objects_store = type { ptr, i32, i32, i32 }
%struct._HashTableIterator = type { ptr, i32, i32 }
%union._zend_function = type { %struct._zend_op_array }
%struct._zend_op_array = type { i8, [3 x i8], i32, ptr, ptr, ptr, i32, i32, ptr, ptr, ptr, ptr, i32, i32, i32, i32, ptr, ptr, ptr, ptr, ptr, i32, i32, ptr, ptr, ptr, i32, i32, i32, i32, ptr, ptr, [6 x ptr] }
%struct._zend_op = type { ptr, %union._znode_op, %union._znode_op, %union._znode_op, i32, i32, i8, i8, i8, i8 }
%union._znode_op = type { i32 }
%struct.zend_get_gc_buffer = type { ptr, ptr, ptr }
%struct._zend_call_stack = type { ptr, i64 }
%struct._zend_string = type { %struct._zend_refcounted_h, i64, i64, [1 x i8] }
%struct._phpdbg_breakopline_t = type { i32, i8, i64, i8, ptr, i64, ptr, i64, i64, i64 }
%struct._zend_class_entry = type { i8, ptr, %union.anon.12, i32, i32, i32, i32, ptr, ptr, ptr, %struct._zend_array, %struct._zend_array, %struct._zend_array, ptr, ptr, ptr, ptr, ptr, ptr, ptr, ptr, ptr, ptr, ptr, ptr, ptr, ptr, ptr, ptr, ptr, ptr, ptr, %union.anon.13, ptr, ptr, ptr, ptr, i32, i32, %union.anon.14, ptr, ptr, ptr, ptr, i32, ptr, ptr, %union.anon.15 }
%union.anon.12 = type { ptr }
%union.anon.13 = type { ptr }
%union.anon.14 = type { ptr }
%union.anon.15 = type { %struct.anon.16 }
%struct.anon.16 = type { ptr, i32, i32 }
%struct._zend_execute_data = type { ptr, ptr, ptr, ptr, %struct._zval_struct, ptr, ptr, ptr, ptr }
%struct.anon.18 = type { i8, [3 x i8], i32, ptr, ptr, ptr, i32, i32, ptr, ptr, ptr, ptr, i32 }

@phpdbg_globals = external global %struct._zend_phpdbg_globals, align 8
@executor_globals = external global %struct._zend_executor_globals, align 8
@.str.32 = private unnamed_addr constant [36 x i8] c"Method %s doesn't exist in class %s\00", align 1
@.str.33 = private unnamed_addr constant [52 x i8] c"%s is not a user defined function, no oplines exist\00", align 1
@.str.34 = private unnamed_addr constant [54 x i8] c"%s::%s is not a user defined method, no oplines exist\00", align 1

; Function Attrs: nounwind uwtable
define i32 @phpdbg_resolve_opline_break(ptr noundef %0) #0 {
  %2 = alloca ptr, align 8
  %3 = alloca ptr, align 8
  %4 = alloca ptr, align 8
  %5 = alloca i64, align 8
  %6 = alloca ptr, align 8
  %7 = alloca ptr, align 8
  %8 = alloca ptr, align 8
  %9 = alloca ptr, align 8
  %10 = alloca i64, align 8
  %11 = alloca ptr, align 8
  %12 = alloca i32, align 4
  %13 = alloca ptr, align 8
  %14 = alloca ptr, align 8
  %15 = alloca ptr, align 8
  %16 = alloca ptr, align 8
  %17 = alloca ptr, align 8
  %18 = alloca ptr, align 8
  store ptr %0, ptr %13, align 8
  %19 = load ptr, ptr getelementptr inbounds (%struct._zend_executor_globals, ptr @executor_globals, i32 0, i32 10), align 8
  store ptr %19, ptr %14, align 8
  %20 = load ptr, ptr %13, align 8
  %21 = getelementptr inbounds %struct._phpdbg_breakopline_t, ptr %20, i32 0, i32 4
  %22 = load ptr, ptr %21, align 8
  %23 = icmp eq ptr %22, null
  br i1 %23, label %24, label %112

24:                                               ; preds = %1
  %25 = load ptr, ptr getelementptr inbounds (%struct._zend_executor_globals, ptr @executor_globals, i32 0, i32 17), align 8
  %26 = icmp eq ptr %25, null
  br i1 %26, label %27, label %50

27:                                               ; preds = %24
  %28 = load ptr, ptr getelementptr inbounds (%struct._zend_phpdbg_globals, ptr @phpdbg_globals, i32 0, i32 26), align 8
  %29 = icmp ne ptr %28, null
  br i1 %29, label %30, label %49

30:                                               ; preds = %27
  %31 = load ptr, ptr getelementptr inbounds (%struct._zend_phpdbg_globals, ptr @phpdbg_globals, i32 0, i32 26), align 8
  %32 = getelementptr inbounds %struct._zend_op_array, ptr %31, i32 0, i32 25
  %33 = load ptr, ptr %32, align 8
  %34 = load ptr, ptr %13, align 8
  %35 = getelementptr inbounds %struct._phpdbg_breakopline_t, ptr %34, i32 0, i32 6
  %36 = load ptr, ptr %35, align 8
  %37 = load ptr, ptr %13, align 8
  %38 = getelementptr inbounds %struct._phpdbg_breakopline_t, ptr %37, i32 0, i32 7
  %39 = load i64, ptr %38, align 8
  %40 = call i32 @memcmp(ptr noundef %33, ptr noundef %36, i64 noundef %39) #10
  %41 = icmp ne i32 %40, 0
  br i1 %41, label %49, label %42

42:                                               ; preds = %30
  %43 = load ptr, ptr %13, align 8
  %44 = load ptr, ptr getelementptr inbounds (%struct._zend_phpdbg_globals, ptr @phpdbg_globals, i32 0, i32 26), align 8
  %45 = call i32 @phpdbg_resolve_op_array_break(ptr noundef %43, ptr noundef %44)
  %46 = icmp eq i32 %45, 0
  br i1 %46, label %47, label %48

47:                                               ; preds = %42
  store i32 0, ptr %12, align 4
  br label %230

48:                                               ; preds = %42
  store i32 2, ptr %12, align 4
  br label %230

49:                                               ; preds = %30, %27
  store i32 -1, ptr %12, align 4
  br label %230

50:                                               ; preds = %24
  %51 = load ptr, ptr getelementptr inbounds (%struct._zend_executor_globals, ptr @executor_globals, i32 0, i32 17), align 8
  store ptr %51, ptr %16, align 8
  br label %52

52:                                               ; preds = %106, %50
  %53 = load ptr, ptr %16, align 8
  %54 = getelementptr inbounds %struct._zend_execute_data, ptr %53, i32 0, i32 3
  %55 = load ptr, ptr %54, align 8
  %56 = getelementptr inbounds %struct.anon.18, ptr %55, i32 0, i32 0
  %57 = load i8, ptr %56, align 8
  %58 = zext i8 %57 to i32
  %59 = icmp ne i32 %58, 1
  br i1 %59, label %60, label %105

60:                                               ; preds = %52
  %61 = load ptr, ptr %16, align 8
  %62 = getelementptr inbounds %struct._zend_execute_data, ptr %61, i32 0, i32 3
  %63 = load ptr, ptr %62, align 8
  store ptr %63, ptr %17, align 8
  %64 = load ptr, ptr %17, align 8
  %65 = getelementptr inbounds %struct._zend_op_array, ptr %64, i32 0, i32 3
  %66 = load ptr, ptr %65, align 8
  %67 = icmp eq ptr %66, null
  br i1 %67, label %68, label %104

68:                                               ; preds = %60
  %69 = load ptr, ptr %17, align 8
  %70 = getelementptr inbounds %struct._zend_op_array, ptr %69, i32 0, i32 4
  %71 = load ptr, ptr %70, align 8
  %72 = icmp eq ptr %71, null
  br i1 %72, label %73, label %104

73:                                               ; preds = %68
  %74 = load ptr, ptr %13, align 8
  %75 = getelementptr inbounds %struct._phpdbg_breakopline_t, ptr %74, i32 0, i32 7
  %76 = load i64, ptr %75, align 8
  %77 = load ptr, ptr %17, align 8
  %78 = getelementptr inbounds %struct._zend_op_array, ptr %77, i32 0, i32 25
  %79 = load ptr, ptr %78, align 8
  %80 = getelementptr inbounds %struct._zend_string, ptr %79, i32 0, i32 2
  %81 = load i64, ptr %80, align 8
  %82 = icmp eq i64 %76, %81
  br i1 %82, label %83, label %104

83:                                               ; preds = %73
  %84 = load ptr, ptr %17, align 8
  %85 = getelementptr inbounds %struct._zend_op_array, ptr %84, i32 0, i32 25
  %86 = load ptr, ptr %85, align 8
  %87 = getelementptr inbounds %struct._zend_string, ptr %86, i32 0, i32 3
  %88 = getelementptr inbounds [1 x i8], ptr %87, i64 0, i64 0
  %89 = load ptr, ptr %13, align 8
  %90 = getelementptr inbounds %struct._phpdbg_breakopline_t, ptr %89, i32 0, i32 6
  %91 = load ptr, ptr %90, align 8
  %92 = load ptr, ptr %13, align 8
  %93 = getelementptr inbounds %struct._phpdbg_breakopline_t, ptr %92, i32 0, i32 7
  %94 = load i64, ptr %93, align 8
  %95 = call i32 @memcmp(ptr noundef %88, ptr noundef %91, i64 noundef %94) #10
  %96 = icmp ne i32 %95, 0
  br i1 %96, label %104, label %97

97:                                               ; preds = %83
  %98 = load ptr, ptr %13, align 8
  %99 = load ptr, ptr %17, align 8
  %100 = call i32 @phpdbg_resolve_op_array_break(ptr noundef %98, ptr noundef %99)
  %101 = icmp eq i32 %100, 0
  br i1 %101, label %102, label %103

102:                                              ; preds = %97
  store i32 0, ptr %12, align 4
  br label %230

103:                                              ; preds = %97
  store i32 2, ptr %12, align 4
  br label %230

104:                                              ; preds = %83, %73, %68, %60
  br label %105

105:                                              ; preds = %104, %52
  br label %106

106:                                              ; preds = %105
  %107 = load ptr, ptr %16, align 8
  %108 = getelementptr inbounds %struct._zend_execute_data, ptr %107, i32 0, i32 5
  %109 = load ptr, ptr %108, align 8
  store ptr %109, ptr %16, align 8
  %110 = icmp ne ptr %109, null
  br i1 %110, label %52, label %111

111:                                              ; preds = %106
  store i32 -1, ptr %12, align 4
  br label %230

112:                                              ; preds = %1
  %113 = load ptr, ptr %13, align 8
  %114 = getelementptr inbounds %struct._phpdbg_breakopline_t, ptr %113, i32 0, i32 6
  %115 = load ptr, ptr %114, align 8
  %116 = icmp ne ptr %115, null
  br i1 %116, label %117, label %149

117:                                              ; preds = %112
  %118 = load ptr, ptr getelementptr inbounds (%struct._zend_executor_globals, ptr @executor_globals, i32 0, i32 11), align 8
  %119 = load ptr, ptr %13, align 8
  %120 = getelementptr inbounds %struct._phpdbg_breakopline_t, ptr %119, i32 0, i32 6
  %121 = load ptr, ptr %120, align 8
  %122 = load ptr, ptr %13, align 8
  %123 = getelementptr inbounds %struct._phpdbg_breakopline_t, ptr %122, i32 0, i32 7
  %124 = load i64, ptr %123, align 8
  %125 = call ptr @zend_str_tolower_dup(ptr noundef %121, i64 noundef %124)
  %126 = load ptr, ptr %13, align 8
  %127 = getelementptr inbounds %struct._phpdbg_breakopline_t, ptr %126, i32 0, i32 7
  %128 = load i64, ptr %127, align 8
  store ptr %118, ptr %3, align 8
  store ptr %125, ptr %4, align 8
  store i64 %128, ptr %5, align 8
  %129 = load ptr, ptr %3, align 8
  %130 = load ptr, ptr %4, align 8
  %131 = load i64, ptr %5, align 8
  %132 = call ptr @zend_hash_str_find(ptr noundef %129, ptr noundef %130, i64 noundef %131) #11
  store ptr %132, ptr %6, align 8
  %133 = load ptr, ptr %6, align 8
  %134 = icmp ne ptr %133, null
  br i1 %134, label %135, label %141

135:                                              ; preds = %117
  %136 = load ptr, ptr %6, align 8
  %137 = load ptr, ptr %136, align 8
  %138 = icmp ne ptr %137, null
  call void @llvm.assume(i1 %138)
  %139 = load ptr, ptr %6, align 8
  %140 = load ptr, ptr %139, align 8
  store ptr %140, ptr %2, align 8
  br label %142

141:                                              ; preds = %117
  store ptr null, ptr %2, align 8
  br label %142

142:                                              ; preds = %141, %135
  %143 = load ptr, ptr %2, align 8
  store ptr %143, ptr %18, align 8
  %144 = icmp ne ptr %143, null
  br i1 %144, label %146, label %145

145:                                              ; preds = %142
  store i32 -1, ptr %12, align 4
  br label %230

146:                                              ; preds = %142
  %147 = load ptr, ptr %18, align 8
  %148 = getelementptr inbounds %struct._zend_class_entry, ptr %147, i32 0, i32 10
  store ptr %148, ptr %14, align 8
  br label %149

149:                                              ; preds = %146, %112
  %150 = load ptr, ptr %14, align 8
  %151 = load ptr, ptr %13, align 8
  %152 = getelementptr inbounds %struct._phpdbg_breakopline_t, ptr %151, i32 0, i32 4
  %153 = load ptr, ptr %152, align 8
  %154 = load ptr, ptr %13, align 8
  %155 = getelementptr inbounds %struct._phpdbg_breakopline_t, ptr %154, i32 0, i32 5
  %156 = load i64, ptr %155, align 8
  %157 = call ptr @zend_str_tolower_dup(ptr noundef %153, i64 noundef %156)
  %158 = load ptr, ptr %13, align 8
  %159 = getelementptr inbounds %struct._phpdbg_breakopline_t, ptr %158, i32 0, i32 5
  %160 = load i64, ptr %159, align 8
  store ptr %150, ptr %8, align 8
  store ptr %157, ptr %9, align 8
  store i64 %160, ptr %10, align 8
  %161 = load ptr, ptr %8, align 8
  %162 = load ptr, ptr %9, align 8
  %163 = load i64, ptr %10, align 8
  %164 = call ptr @zend_hash_str_find(ptr noundef %161, ptr noundef %162, i64 noundef %163) #11
  store ptr %164, ptr %11, align 8
  %165 = load ptr, ptr %11, align 8
  %166 = icmp ne ptr %165, null
  br i1 %166, label %167, label %173

167:                                              ; preds = %149
  %168 = load ptr, ptr %11, align 8
  %169 = load ptr, ptr %168, align 8
  %170 = icmp ne ptr %169, null
  call void @llvm.assume(i1 %170)
  %171 = load ptr, ptr %11, align 8
  %172 = load ptr, ptr %171, align 8
  store ptr %172, ptr %7, align 8
  br label %174

173:                                              ; preds = %149
  store ptr null, ptr %7, align 8
  br label %174

174:                                              ; preds = %173, %167
  %175 = load ptr, ptr %7, align 8
  store ptr %175, ptr %15, align 8
  %176 = icmp ne ptr %175, null
  br i1 %176, label %197, label %177

177:                                              ; preds = %174
  %178 = load ptr, ptr %13, align 8
  %179 = getelementptr inbounds %struct._phpdbg_breakopline_t, ptr %178, i32 0, i32 6
  %180 = load ptr, ptr %179, align 8
  %181 = icmp ne ptr %180, null
  br i1 %181, label %182, label %196

182:                                              ; preds = %177
  %183 = load ptr, ptr %13, align 8
  %184 = getelementptr inbounds %struct._phpdbg_breakopline_t, ptr %183, i32 0, i32 4
  %185 = load ptr, ptr %184, align 8
  %186 = icmp ne ptr %185, null
  br i1 %186, label %187, label %196

187:                                              ; preds = %182
  %188 = load i32, ptr getelementptr inbounds (%struct._zend_phpdbg_globals, ptr @phpdbg_globals, i32 0, i32 39, i64 1), align 4
  %189 = load ptr, ptr %13, align 8
  %190 = getelementptr inbounds %struct._phpdbg_breakopline_t, ptr %189, i32 0, i32 4
  %191 = load ptr, ptr %190, align 8
  %192 = load ptr, ptr %13, align 8
  %193 = getelementptr inbounds %struct._phpdbg_breakopline_t, ptr %192, i32 0, i32 6
  %194 = load ptr, ptr %193, align 8
  %195 = call i32 (i32, i32, ptr, ...) @phpdbg_print(i32 noundef 1, i32 noundef %188, ptr noundef @.str.32, ptr noundef %191, ptr noundef %194)
  store i32 2, ptr %12, align 4
  br label %230

196:                                              ; preds = %182, %177
  store i32 -1, ptr %12, align 4
  br label %230

197:                                              ; preds = %174
  %198 = load ptr, ptr %15, align 8
  %199 = load i8, ptr %198, align 8
  %200 = zext i8 %199 to i32
  %201 = icmp ne i32 %200, 2
  br i1 %201, label %202, label %223

202:                                              ; preds = %197
  %203 = load ptr, ptr %13, align 8
  %204 = getelementptr inbounds %struct._phpdbg_breakopline_t, ptr %203, i32 0, i32 6
  %205 = load ptr, ptr %204, align 8
  %206 = icmp eq ptr %205, null
  br i1 %206, label %207, label %213

207:                                              ; preds = %202
  %208 = load i32, ptr getelementptr inbounds (%struct._zend_phpdbg_globals, ptr @phpdbg_globals, i32 0, i32 39, i64 1), align 4
  %209 = load ptr, ptr %13, align 8
  %210 = getelementptr inbounds %struct._phpdbg_breakopline_t, ptr %209, i32 0, i32 4
  %211 = load ptr, ptr %210, align 8
  %212 = call i32 (i32, i32, ptr, ...) @phpdbg_print(i32 noundef 1, i32 noundef %208, ptr noundef @.str.33, ptr noundef %211)
  br label %222

213:                                              ; preds = %202
  %214 = load i32, ptr getelementptr inbounds (%struct._zend_phpdbg_globals, ptr @phpdbg_globals, i32 0, i32 39, i64 1), align 4
  %215 = load ptr, ptr %13, align 8
  %216 = getelementptr inbounds %struct._phpdbg_breakopline_t, ptr %215, i32 0, i32 6
  %217 = load ptr, ptr %216, align 8
  %218 = load ptr, ptr %13, align 8
  %219 = getelementptr inbounds %struct._phpdbg_breakopline_t, ptr %218, i32 0, i32 4
  %220 = load ptr, ptr %219, align 8
  %221 = call i32 (i32, i32, ptr, ...) @phpdbg_print(i32 noundef 1, i32 noundef %214, ptr noundef @.str.34, ptr noundef %217, ptr noundef %220)
  br label %222

222:                                              ; preds = %213, %207
  store i32 2, ptr %12, align 4
  br label %230

223:                                              ; preds = %197
  %224 = load ptr, ptr %13, align 8
  %225 = load ptr, ptr %15, align 8
  %226 = call i32 @phpdbg_resolve_op_array_break(ptr noundef %224, ptr noundef %225)
  %227 = icmp eq i32 %226, -1
  br i1 %227, label %228, label %229

228:                                              ; preds = %223
  store i32 2, ptr %12, align 4
  br label %230

229:                                              ; preds = %223
  store i32 0, ptr %12, align 4
  br label %230

230:                                              ; preds = %229, %228, %222, %196, %187, %145, %111, %103, %102, %49, %48, %47
  %231 = load i32, ptr %12, align 4
  ret i32 %231
}