; Function Attrs: nounwind uwtable
define noundef i32 @phpdbg_resolve_opline_break(ptr noundef %0) local_unnamed_addr #1 {
  %2 = getelementptr inbounds i8, ptr %0, i64 24
  %3 = load ptr, ptr %2, align 8
  %4 = icmp eq ptr %3, null
  br i1 %4, label %5, label %50

5:                                                ; preds = %1
  %6 = load ptr, ptr getelementptr inbounds (%struct._zend_executor_globals, ptr @executor_globals, i64 0, i32 17), align 8
  %7 = icmp eq ptr %6, null
  br i1 %7, label %10, label %.preheader

.preheader:                                       ; preds = %5
  %8 = getelementptr inbounds i8, ptr %0, i64 48
  %9 = getelementptr inbounds i8, ptr %0, i64 40
  br label %22

10:                                               ; preds = %5
  %11 = load ptr, ptr getelementptr inbounds (%struct._zend_phpdbg_globals, ptr @phpdbg_globals, i64 0, i32 26), align 8
  %.not74 = icmp eq ptr %11, null
  br i1 %.not74, label %.thread, label %12

12:                                               ; preds = %10
  %13 = getelementptr inbounds i8, ptr %11, i64 152
  %14 = load ptr, ptr %13, align 8
  %15 = getelementptr inbounds i8, ptr %0, i64 40
  %16 = load ptr, ptr %15, align 8
  %17 = getelementptr inbounds i8, ptr %0, i64 48
  %18 = load i64, ptr %17, align 8
  %bcmp75 = tail call i32 @bcmp(ptr %14, ptr %16, i64 %18)
  %.not76 = icmp eq i32 %bcmp75, 0
  br i1 %.not76, label %19, label %.thread

19:                                               ; preds = %12
  %20 = tail call i32 @phpdbg_resolve_op_array_break(ptr noundef nonnull %0, ptr noundef nonnull %11), !range !5
  %21 = icmp eq i32 %20, 0
  %. = select i1 %21, i32 0, i32 2
  br label %.thread

22:                                               ; preds = %.preheader, %47
  %.051 = phi ptr [ %49, %47 ], [ %6, %.preheader ]
  %23 = getelementptr inbounds i8, ptr %.051, i64 24
  %24 = load ptr, ptr %23, align 8
  %25 = load i8, ptr %24, align 8
  %.not71 = icmp eq i8 %25, 1
  br i1 %.not71, label %47, label %26

26:                                               ; preds = %22
  %27 = getelementptr inbounds i8, ptr %24, i64 8
  %28 = load ptr, ptr %27, align 8
  %29 = icmp eq ptr %28, null
  br i1 %29, label %30, label %47

30:                                               ; preds = %26
  %31 = getelementptr inbounds i8, ptr %24, i64 16
  %32 = load ptr, ptr %31, align 8
  %33 = icmp eq ptr %32, null
  br i1 %33, label %34, label %47

34:                                               ; preds = %30
  %35 = load i64, ptr %8, align 8
  %36 = getelementptr inbounds i8, ptr %24, i64 152
  %37 = load ptr, ptr %36, align 8
  %38 = getelementptr inbounds i8, ptr %37, i64 16
  %39 = load i64, ptr %38, align 8
  %40 = icmp eq i64 %35, %39
  br i1 %40, label %41, label %47

41:                                               ; preds = %34
  %42 = getelementptr inbounds i8, ptr %37, i64 24
  %43 = load ptr, ptr %9, align 8
  %bcmp = tail call i32 @bcmp(ptr nonnull %42, ptr %43, i64 %35)
  %.not72 = icmp eq i32 %bcmp, 0
  br i1 %.not72, label %44, label %47

44:                                               ; preds = %41
  %45 = tail call i32 @phpdbg_resolve_op_array_break(ptr noundef nonnull %0, ptr noundef nonnull %24), !range !5
  %46 = icmp eq i32 %45, 0
  %.77 = select i1 %46, i32 0, i32 2
  br label %.thread

47:                                               ; preds = %22, %41, %34, %30, %26
  %48 = getelementptr inbounds i8, ptr %.051, i64 48
  %49 = load ptr, ptr %48, align 8
  %.not73 = icmp eq ptr %49, null
  br i1 %.not73, label %.thread, label %22

50:                                               ; preds = %1
  %51 = load ptr, ptr getelementptr inbounds (%struct._zend_executor_globals, ptr @executor_globals, i64 0, i32 10), align 8
  %52 = getelementptr inbounds i8, ptr %0, i64 40
  %53 = load ptr, ptr %52, align 8
  %.not = icmp eq ptr %53, null
  br i1 %.not, label %64, label %54

54:                                               ; preds = %50
  %55 = load ptr, ptr getelementptr inbounds (%struct._zend_executor_globals, ptr @executor_globals, i64 0, i32 11), align 8
  %56 = getelementptr inbounds i8, ptr %0, i64 48
  %57 = load i64, ptr %56, align 8
  %58 = tail call ptr @zend_str_tolower_dup(ptr noundef nonnull %53, i64 noundef %57) #14
  %59 = load i64, ptr %56, align 8
  %60 = tail call ptr @zend_hash_str_find(ptr noundef %55, ptr noundef %58, i64 noundef %59) #14
  %.not64 = icmp eq ptr %60, null
  br i1 %.not64, label %.thread, label %61

61:                                               ; preds = %54
  %62 = load ptr, ptr %60, align 8, !nonnull !4, !noundef !4
  %63 = getelementptr inbounds i8, ptr %62, i64 64
  %.pre = load ptr, ptr %2, align 8
  br label %64

64:                                               ; preds = %61, %50
  %65 = phi ptr [ %.pre, %61 ], [ %3, %50 ]
  %.053 = phi ptr [ %63, %61 ], [ %51, %50 ]
  %66 = getelementptr inbounds i8, ptr %0, i64 32
  %67 = load i64, ptr %66, align 8
  %68 = tail call ptr @zend_str_tolower_dup(ptr noundef %65, i64 noundef %67) #14
  %69 = load i64, ptr %66, align 8
  %70 = tail call ptr @zend_hash_str_find(ptr noundef %.053, ptr noundef %68, i64 noundef %69) #14
  %.not66 = icmp eq ptr %70, null
  br i1 %.not66, label %71, label %78

71:                                               ; preds = %64
  %72 = load ptr, ptr %52, align 8
  %.not68 = icmp eq ptr %72, null
  br i1 %.not68, label %.thread, label %73

73:                                               ; preds = %71
  %74 = load ptr, ptr %2, align 8
  %.not69 = icmp eq ptr %74, null
  br i1 %.not69, label %.thread, label %75

75:                                               ; preds = %73
  %76 = load i32, ptr getelementptr inbounds (%struct._zend_phpdbg_globals, ptr @phpdbg_globals, i64 0, i32 39, i64 1), align 4
  %77 = tail call i32 (i32, i32, ptr, ...) @phpdbg_print(i32 noundef 1, i32 noundef %76, ptr noundef nonnull @.str.32, ptr noundef nonnull %74, ptr noundef nonnull %72) #14
  br label %.thread

78:                                               ; preds = %64
  %79 = load ptr, ptr %70, align 8, !nonnull !4, !noundef !4
  %80 = load i8, ptr %79, align 8
  %.not70 = icmp eq i8 %80, 2
  br i1 %.not70, label %90, label %81

81:                                               ; preds = %78
  %82 = load ptr, ptr %52, align 8
  %83 = icmp eq ptr %82, null
  %84 = load i32, ptr getelementptr inbounds (%struct._zend_phpdbg_globals, ptr @phpdbg_globals, i64 0, i32 39, i64 1), align 4
  %85 = load ptr, ptr %2, align 8
  br i1 %83, label %86, label %88

86:                                               ; preds = %81
  %87 = tail call i32 (i32, i32, ptr, ...) @phpdbg_print(i32 noundef 1, i32 noundef %84, ptr noundef nonnull @.str.33, ptr noundef %85) #14
  br label %.thread

88:                                               ; preds = %81
  %89 = tail call i32 (i32, i32, ptr, ...) @phpdbg_print(i32 noundef 1, i32 noundef %84, ptr noundef nonnull @.str.34, ptr noundef nonnull %82, ptr noundef %85) #14
  br label %.thread

90:                                               ; preds = %78
  %91 = tail call i32 @phpdbg_resolve_op_array_break(ptr noundef nonnull %0, ptr noundef nonnull %79), !range !5
  %92 = icmp eq i32 %91, -1
  %.78 = select i1 %92, i32 2, i32 0
  br label %.thread

.thread:                                          ; preds = %47, %54, %90, %86, %88, %71, %73, %44, %10, %12, %19, %75
  %.052 = phi i32 [ 2, %75 ], [ %., %19 ], [ -1, %12 ], [ -1, %10 ], [ %.77, %44 ], [ -1, %73 ], [ -1, %71 ], [ 2, %88 ], [ 2, %86 ], [ %.78, %90 ], [ -1, %54 ], [ -1, %47 ]
  ret i32 %.052
}